target datalayout = "e-m:e-p270:32:32-p271:32:32-p272:64:64-i64:64-i128:128-f80:128-n8:16:32:64-S128"
target triple = "x86_64-pc-linux-gnu"

%struct.evp_pkey_method_st = type { i32, i32, ptr, ptr, ptr, ptr, ptr, ptr, ptr, ptr, ptr, ptr, ptr, ptr, ptr, ptr, ptr, ptr, ptr, ptr, ptr, ptr, ptr, ptr, ptr, ptr, ptr, ptr, ptr, ptr, ptr, ptr, ptr }
%struct.RSA_PKEY_CTX = type { i32, ptr, i32, [2 x i32], i32, ptr, ptr, i32, i32, ptr, ptr, i64, i32 }
%struct.evp_pkey_ctx_st = type { i32, ptr, ptr, ptr, ptr, %union.anon, %struct.anon.4, ptr, ptr, ptr, i32, i32, ptr, ptr, ptr, ptr, ptr, i8, ptr }
%union.anon = type { %struct.anon.0 }
%struct.anon.0 = type { ptr, ptr }
%struct.anon.4 = type { ptr, ptr, i64, i8 }
%struct.rsa_st = type { i32, ptr, i32, ptr, ptr, ptr, ptr, ptr, ptr, ptr, ptr, ptr, ptr, %struct.rsa_pss_params_30_st, ptr, ptr, %struct.crypto_ex_data_st, %struct.CRYPTO_REF_COUNT, i32, ptr, ptr, ptr, ptr, ptr, ptr, i32 }
%struct.rsa_pss_params_30_st = type { i32, %struct.anon.5, i32, i32 }
%struct.anon.5 = type { i32, i32 }
%struct.crypto_ex_data_st = type { ptr, ptr }
%struct.CRYPTO_REF_COUNT = type { i32 }

; Function Attrs: nounwind uwtable
define internal i32 @rsa_set_pss_param(ptr noundef %0, ptr noundef %1) #0 {
  %3 = alloca i32, align 4
  %4 = alloca ptr, align 8
  %5 = alloca ptr, align 8
  %6 = alloca ptr, align 8
  %7 = alloca i32, align 4
  store ptr %0, ptr %4, align 8, !tbaa !42
  store ptr %1, ptr %5, align 8, !tbaa !3
  call void @llvm.lifetime.start.p0(i64 8, ptr %6) #8
  %8 = load ptr, ptr %5, align 8, !tbaa !3
  %9 = getelementptr inbounds nuw %struct.evp_pkey_ctx_st, ptr %8, i32 0, i32 16
  %10 = load ptr, ptr %9, align 8, !tbaa !32
  store ptr %10, ptr %6, align 8, !tbaa !8
  %11 = load ptr, ptr %5, align 8, !tbaa !3
  %12 = getelementptr inbounds nuw %struct.evp_pkey_ctx_st, ptr %11, i32 0, i32 12
  %13 = load ptr, ptr %12, align 8, !tbaa !17
  %14 = getelementptr inbounds nuw %struct.evp_pkey_method_st, ptr %13, i32 0, i32 0
  %15 = load i32, ptr %14, align 8, !tbaa !26
  %16 = icmp eq i32 %15, 912
  br i1 %16, label %18, label %17

17:                                               ; preds = %2
  store i32 1, ptr %3, align 4
  store i32 1, ptr %7, align 4
  br label %61

18:                                               ; preds = %2
  %19 = load ptr, ptr %6, align 8, !tbaa !8
  %20 = getelementptr inbounds nuw %struct.RSA_PKEY_CTX, ptr %19, i32 0, i32 5
  %21 = load ptr, ptr %20, align 8, !tbaa !36
  %22 = icmp eq ptr %21, null
  br i1 %22, label %23, label %34

23:                                               ; preds = %18
  %24 = load ptr, ptr %6, align 8, !tbaa !8
  %25 = getelementptr inbounds nuw %struct.RSA_PKEY_CTX, ptr %24, i32 0, i32 6
  %26 = load ptr, ptr %25, align 8, !tbaa !37
  %27 = icmp eq ptr %26, null
  br i1 %27, label %28, label %34

28:                                               ; preds = %23
  %29 = load ptr, ptr %6, align 8, !tbaa !8
  %30 = getelementptr inbounds nuw %struct.RSA_PKEY_CTX, ptr %29, i32 0, i32 7
  %31 = load i32, ptr %30, align 8, !tbaa !29
  %32 = icmp eq i32 %31, -2
  br i1 %32, label %33, label %34

33:                                               ; preds = %28
  store i32 1, ptr %3, align 4
  store i32 1, ptr %7, align 4
  br label %61

34:                                               ; preds = %28, %23, %18
  %35 = load ptr, ptr %6, align 8, !tbaa !8
  %36 = getelementptr inbounds nuw %struct.RSA_PKEY_CTX, ptr %35, i32 0, i32 5
  %37 = load ptr, ptr %36, align 8, !tbaa !36
  %38 = load ptr, ptr %6, align 8, !tbaa !8
  %39 = getelementptr inbounds nuw %struct.RSA_PKEY_CTX, ptr %38, i32 0, i32 6
  %40 = load ptr, ptr %39, align 8, !tbaa !37
  %41 = load ptr, ptr %6, align 8, !tbaa !8
  %42 = getelementptr inbounds nuw %struct.RSA_PKEY_CTX, ptr %41, i32 0, i32 7
  %43 = load i32, ptr %42, align 8, !tbaa !29
  %44 = icmp eq i32 %43, -2
  br i1 %44, label %45, label %46

45:                                               ; preds = %34
  br label %50

46:                                               ; preds = %34
  %47 = load ptr, ptr %6, align 8, !tbaa !8
  %48 = getelementptr inbounds nuw %struct.RSA_PKEY_CTX, ptr %47, i32 0, i32 7
  %49 = load i32, ptr %48, align 8, !tbaa !29
  br label %50

50:                                               ; preds = %46, %45
  %51 = phi i32 [ 0, %45 ], [ %49, %46 ]
  %52 = call ptr @ossl_rsa_pss_params_create(ptr noundef %37, ptr noundef %40, i32 noundef %51)
  %53 = load ptr, ptr %4, align 8, !tbaa !42
  %54 = getelementptr inbounds nuw %struct.rsa_st, ptr %53, i32 0, i32 14
  store ptr %52, ptr %54, align 8, !tbaa !57
  %55 = load ptr, ptr %4, align 8, !tbaa !42
  %56 = getelementptr inbounds nuw %struct.rsa_st, ptr %55, i32 0, i32 14
  %57 = load ptr, ptr %56, align 8, !tbaa !57
  %58 = icmp eq ptr %57, null
  br i1 %58, label %59, label %60

59:                                               ; preds = %50
  store i32 0, ptr %3, align 4
  store i32 1, ptr %7, align 4
  br label %61

60:                                               ; preds = %50
  store i32 1, ptr %3, align 4
  store i32 1, ptr %7, align 4
  br label %61

61:                                               ; preds = %60, %59, %33, %17
  call void @llvm.lifetime.end.p0(i64 8, ptr %6) #8
  %62 = load i32, ptr %3, align 4
  ret i32 %62
}

; Function Attrs: nounwind uwtable
define internal i32 @pkey_rsa_keygen(ptr noundef %0, ptr noundef %1) #0 {
  %3 = alloca i32, align 4
  %4 = alloca ptr, align 8
  %5 = alloca ptr, align 8
  %6 = alloca ptr, align 8
  %7 = alloca ptr, align 8
  %8 = alloca ptr, align 8
  %9 = alloca i32, align 4
  %10 = alloca i32, align 4
  store ptr %0, ptr %4, align 8, !tbaa !3
  store ptr %1, ptr %5, align 8, !tbaa !41
  call void @llvm.lifetime.start.p0(i64 8, ptr %6) #8
  store ptr null, ptr %6, align 8, !tbaa !42
  call void @llvm.lifetime.start.p0(i64 8, ptr %7) #8
  %11 = load ptr, ptr %4, align 8, !tbaa !3
  %12 = getelementptr inbounds nuw %struct.evp_pkey_ctx_st, ptr %11, i32 0, i32 16
  %13 = load ptr, ptr %12, align 8, !tbaa !32
  store ptr %13, ptr %7, align 8, !tbaa !8
  call void @llvm.lifetime.start.p0(i64 8, ptr %8) #8
  call void @llvm.lifetime.start.p0(i64 4, ptr %9) #8
  %14 = load ptr, ptr %7, align 8, !tbaa !8
  %15 = getelementptr inbounds nuw %struct.RSA_PKEY_CTX, ptr %14, i32 0, i32 1
  %16 = load ptr, ptr %15, align 8, !tbaa !35
  %17 = icmp eq ptr %16, null
  br i1 %17, label %18, label %34

18:                                               ; preds = %2
  %19 = call ptr @BN_new()
  %20 = load ptr, ptr %7, align 8, !tbaa !8
  %21 = getelementptr inbounds nuw %struct.RSA_PKEY_CTX, ptr %20, i32 0, i32 1
  store ptr %19, ptr %21, align 8, !tbaa !35
  %22 = load ptr, ptr %7, align 8, !tbaa !8
  %23 = getelementptr inbounds nuw %struct.RSA_PKEY_CTX, ptr %22, i32 0, i32 1
  %24 = load ptr, ptr %23, align 8, !tbaa !35
  %25 = icmp eq ptr %24, null
  br i1 %25, label %32, label %26

26:                                               ; preds = %18
  %27 = load ptr, ptr %7, align 8, !tbaa !8
  %28 = getelementptr inbounds nuw %struct.RSA_PKEY_CTX, ptr %27, i32 0, i32 1
  %29 = load ptr, ptr %28, align 8, !tbaa !35
  %30 = call i32 @BN_set_word(ptr noundef %29, i64 noundef 65537)
  %31 = icmp ne i32 %30, 0
  br i1 %31, label %33, label %32

32:                                               ; preds = %26, %18
  store i32 0, ptr %3, align 4
  store i32 1, ptr %10, align 4
  br label %93

33:                                               ; preds = %26
  br label %34

34:                                               ; preds = %33, %2
  %35 = call ptr @RSA_new()
  store ptr %35, ptr %6, align 8, !tbaa !42
  %36 = load ptr, ptr %6, align 8, !tbaa !42
  %37 = icmp eq ptr %36, null
  br i1 %37, label %38, label %39

38:                                               ; preds = %34
  store i32 0, ptr %3, align 4
  store i32 1, ptr %10, align 4
  br label %93

39:                                               ; preds = %34
  %40 = load ptr, ptr %4, align 8, !tbaa !3
  %41 = getelementptr inbounds nuw %struct.evp_pkey_ctx_st, ptr %40, i32 0, i32 8
  %42 = load ptr, ptr %41, align 8, !tbaa !44
  %43 = icmp ne ptr %42, null
  br i1 %43, label %44, label %53

44:                                               ; preds = %39
  %45 = call ptr @BN_GENCB_new()
  store ptr %45, ptr %8, align 8, !tbaa !45
  %46 = load ptr, ptr %8, align 8, !tbaa !45
  %47 = icmp eq ptr %46, null
  br i1 %47, label %48, label %50

48:                                               ; preds = %44
  %49 = load ptr, ptr %6, align 8, !tbaa !42
  call void @RSA_free(ptr noundef %49)
  store i32 0, ptr %3, align 4
  store i32 1, ptr %10, align 4
  br label %93

50:                                               ; preds = %44
  %51 = load ptr, ptr %8, align 8, !tbaa !45
  %52 = load ptr, ptr %4, align 8, !tbaa !3
  call void @evp_pkey_set_cb_translate(ptr noundef %51, ptr noundef %52)
  br label %54

53:                                               ; preds = %39
  store ptr null, ptr %8, align 8, !tbaa !45
  br label %54

54:                                               ; preds = %53, %50
  %55 = load ptr, ptr %6, align 8, !tbaa !42
  %56 = load ptr, ptr %7, align 8, !tbaa !8
  %57 = getelementptr inbounds nuw %struct.RSA_PKEY_CTX, ptr %56, i32 0, i32 0
  %58 = load i32, ptr %57, align 8, !tbaa !9
  %59 = load ptr, ptr %7, align 8, !tbaa !8
  %60 = getelementptr inbounds nuw %struct.RSA_PKEY_CTX, ptr %59, i32 0, i32 2
  %61 = load i32, ptr %60, align 8, !tbaa !16
  %62 = load ptr, ptr %7, align 8, !tbaa !8
  %63 = getelementptr inbounds nuw %struct.RSA_PKEY_CTX, ptr %62, i32 0, i32 1
  %64 = load ptr, ptr %63, align 8, !tbaa !35
  %65 = load ptr, ptr %8, align 8, !tbaa !45
  %66 = call i32 @RSA_generate_multi_prime_key(ptr noundef %55, i32 noundef %58, i32 noundef %61, ptr noundef %64, ptr noundef %65)
  store i32 %66, ptr %9, align 4, !tbaa !47
  %67 = load ptr, ptr %8, align 8, !tbaa !45
  call void @BN_GENCB_free(ptr noundef %67)
  %68 = load i32, ptr %9, align 4, !tbaa !47
  %69 = icmp sgt i32 %68, 0
  br i1 %69, label %70, label %77

70:                                               ; preds = %54
  %71 = load ptr, ptr %6, align 8, !tbaa !42
  %72 = load ptr, ptr %4, align 8, !tbaa !3
  %73 = call i32 @rsa_set_pss_param(ptr noundef %71, ptr noundef %72)
  %74 = icmp ne i32 %73, 0
  br i1 %74, label %77, label %75

75:                                               ; preds = %70
  %76 = load ptr, ptr %6, align 8, !tbaa !42
  call void @RSA_free(ptr noundef %76)
  store i32 0, ptr %3, align 4
  store i32 1, ptr %10, align 4
  br label %93

77:                                               ; preds = %70, %54
  %78 = load i32, ptr %9, align 4, !tbaa !47
  %79 = icmp sgt i32 %78, 0
  br i1 %79, label %80, label %89

80:                                               ; preds = %77
  %81 = load ptr, ptr %5, align 8, !tbaa !41
  %82 = load ptr, ptr %4, align 8, !tbaa !3
  %83 = getelementptr inbounds nuw %struct.evp_pkey_ctx_st, ptr %82, i32 0, i32 12
  %84 = load ptr, ptr %83, align 8, !tbaa !17
  %85 = getelementptr inbounds nuw %struct.evp_pkey_method_st, ptr %84, i32 0, i32 0
  %86 = load i32, ptr %85, align 8, !tbaa !26
  %87 = load ptr, ptr %6, align 8, !tbaa !42
  %88 = call i32 @EVP_PKEY_assign(ptr noundef %81, i32 noundef %86, ptr noundef %87)
  br label %91

89:                                               ; preds = %77
  %90 = load ptr, ptr %6, align 8, !tbaa !42
  call void @RSA_free(ptr noundef %90)
  br label %91

91:                                               ; preds = %89, %80
  %92 = load i32, ptr %9, align 4, !tbaa !47
  store i32 %92, ptr %3, align 4
  store i32 1, ptr %10, align 4
  br label %93

93:                                               ; preds = %91, %75, %48, %38, %32
  call void @llvm.lifetime.end.p0(i64 4, ptr %9) #8
  call void @llvm.lifetime.end.p0(i64 8, ptr %8) #8
  call void @llvm.lifetime.end.p0(i64 8, ptr %7) #8
  call void @llvm.lifetime.end.p0(i64 8, ptr %6) #8
  %94 = load i32, ptr %3, align 4
  ret i32 %94
}