; Function Attrs: nounwind uwtable
define internal i32 @pkey_rsa_keygen(ptr noundef %0, ptr noundef %1) #1 {
  %3 = getelementptr inbounds nuw i8, ptr %0, i64 152
  %4 = load ptr, ptr %3, align 8, !tbaa !29
  %5 = getelementptr inbounds nuw i8, ptr %4, i64 8
  %6 = load ptr, ptr %5, align 8, !tbaa !32
  %7 = icmp eq ptr %6, null
  br i1 %7, label %8, label %13

8:                                                ; preds = %2
  %9 = tail call ptr @BN_new() #9
  store ptr %9, ptr %5, align 8, !tbaa !32
  %10 = icmp eq ptr %9, null
  br i1 %10, label %52, label %11

11:                                               ; preds = %8
  %12 = tail call i32 @BN_set_word(ptr noundef nonnull %9, i64 noundef 65537) #9
  %.not = icmp eq i32 %12, 0
  br i1 %.not, label %52, label %13

13:                                               ; preds = %11, %2
  %14 = tail call ptr @RSA_new() #9
  %15 = icmp eq ptr %14, null
  br i1 %15, label %52, label %16

16:                                               ; preds = %13
  %17 = getelementptr inbounds nuw i8, ptr %0, i64 96
  %18 = load ptr, ptr %17, align 8, !tbaa !38
  %.not31 = icmp eq ptr %18, null
  br i1 %.not31, label %24, label %19

19:                                               ; preds = %16
  %20 = tail call ptr @BN_GENCB_new() #9
  %21 = icmp eq ptr %20, null
  br i1 %21, label %22, label %23

22:                                               ; preds = %19
  tail call void @RSA_free(ptr noundef nonnull %14) #9
  br label %52

23:                                               ; preds = %19
  tail call void @evp_pkey_set_cb_translate(ptr noundef nonnull %20, ptr noundef nonnull %0) #9
  br label %24

24:                                               ; preds = %16, %23
  %.027 = phi ptr [ %20, %23 ], [ null, %16 ]
  %25 = load i32, ptr %4, align 8, !tbaa !3
  %26 = getelementptr inbounds nuw i8, ptr %4, i64 16
  %27 = load i32, ptr %26, align 8, !tbaa !13
  %28 = load ptr, ptr %5, align 8, !tbaa !32
  %29 = tail call i32 @RSA_generate_multi_prime_key(ptr noundef nonnull %14, i32 noundef %25, i32 noundef %27, ptr noundef %28, ptr noundef %.027) #9
  tail call void @BN_GENCB_free(ptr noundef %.027) #9
  %30 = icmp sgt i32 %29, 0
  br i1 %30, label %31, label %.critedge

31:                                               ; preds = %24
  %32 = getelementptr i8, ptr %0, i64 120
  %.val = load ptr, ptr %32, align 8, !tbaa !14
  %.val.val = load i32, ptr %.val, align 8, !tbaa !23
  %33 = icmp eq i32 %.val.val, 912
  br i1 %33, label %34, label %rsa_set_pss_param.exit.thread

34:                                               ; preds = %31
  %.val33 = load ptr, ptr %3, align 8, !tbaa !29
  %35 = getelementptr inbounds nuw i8, ptr %.val33, i64 32
  %36 = load ptr, ptr %35, align 8, !tbaa !33
  %37 = icmp eq ptr %36, null
  %38 = getelementptr inbounds nuw i8, ptr %.val33, i64 40
  %39 = load ptr, ptr %38, align 8, !tbaa !34
  %40 = icmp eq ptr %39, null
  %or.cond.i = select i1 %37, i1 %40, i1 false
  %41 = getelementptr inbounds nuw i8, ptr %.val33, i64 48
  %42 = load i32, ptr %41, align 8, !tbaa !26
  br i1 %or.cond.i, label %43, label %rsa_set_pss_param.exit

43:                                               ; preds = %34
  %44 = icmp eq i32 %42, -2
  br i1 %44, label %rsa_set_pss_param.exit.thread, label %rsa_set_pss_param.exit

rsa_set_pss_param.exit:                           ; preds = %34, %43
  %45 = phi ptr [ null, %43 ], [ %39, %34 ]
  %46 = icmp eq i32 %42, -2
  %spec.select.i = select i1 %46, i32 0, i32 %42
  %47 = tail call ptr @ossl_rsa_pss_params_create(ptr noundef %36, ptr noundef %45, i32 noundef %spec.select.i) #9
  %48 = getelementptr inbounds nuw i8, ptr %14, i64 128
  store ptr %47, ptr %48, align 8, !tbaa !39
  %.not36 = icmp eq ptr %47, null
  br i1 %.not36, label %49, label %rsa_set_pss_param.exit.rsa_set_pss_param.exit.thread_crit_edge

rsa_set_pss_param.exit.rsa_set_pss_param.exit.thread_crit_edge: ; preds = %rsa_set_pss_param.exit
  %.pre37 = load ptr, ptr %32, align 8, !tbaa !14
  %.pre38 = load i32, ptr %.pre37, align 8, !tbaa !23
  br label %rsa_set_pss_param.exit.thread

49:                                               ; preds = %rsa_set_pss_param.exit
  tail call void @RSA_free(ptr noundef nonnull %14) #9
  br label %52

rsa_set_pss_param.exit.thread:                    ; preds = %rsa_set_pss_param.exit.rsa_set_pss_param.exit.thread_crit_edge, %43, %31
  %50 = phi i32 [ %.pre38, %rsa_set_pss_param.exit.rsa_set_pss_param.exit.thread_crit_edge ], [ 912, %43 ], [ %.val.val, %31 ]
  %51 = tail call i32 @EVP_PKEY_assign(ptr noundef %1, i32 noundef %50, ptr noundef nonnull %14) #9
  br label %52

.critedge:                                        ; preds = %24
  tail call void @RSA_free(ptr noundef nonnull %14) #9
  br label %52

52:                                               ; preds = %rsa_set_pss_param.exit.thread, %.critedge, %13, %8, %11, %49, %22
  %.0 = phi i32 [ 0, %22 ], [ 0, %49 ], [ 0, %11 ], [ 0, %8 ], [ 0, %13 ], [ %29, %.critedge ], [ %29, %rsa_set_pss_param.exit.thread ]
  ret i32 %.0
}